; Function Attrs: mustprogress uwtable
define noundef zeroext i1 @_ZNK2cv12VideoCapture8isOpenedEv(ptr noundef nonnull readonly align 8 captures(none) dereferenceable(41) %0) unnamed_addr #3 align 2 {
  %2 = getelementptr inbounds nuw i8, ptr %0, i64 24
  %3 = load ptr, ptr %2, align 8, !tbaa !90
  %4 = icmp eq ptr %3, null
  br i1 %4, label %10, label %5

5:                                                ; preds = %1
  %6 = load ptr, ptr %3, align 8, !tbaa !10
  %7 = getelementptr inbounds nuw i8, ptr %6, i64 48
  %8 = load ptr, ptr %7, align 8
  %9 = tail call noundef zeroext i1 %8(ptr noundef nonnull align 8 dereferenceable(8) %3)
  br label %10

10:                                               ; preds = %1, %5
  %11 = phi i1 [ %9, %5 ], [ false, %1 ]
  ret i1 %11
}